target datalayout = "e-m:e-p270:32:32-p271:32:32-p272:64:64-i64:64-i128:128-f80:128-n8:16:32:64-S128"
target triple = "x86_64-pc-linux-gnu"

%"class.gmx::internal::AnalysisNeighborhoodPairSearchImpl" = type <{ ptr, i8, [3 x i8], i32, ptr, ptr, ptr, %"class.gmx::ArrayRef", i32, [3 x float], i32, float, [3 x float], i32, [3 x float], i32, [3 x i32], [3 x i32], i32, [4 x i8] }>
%"class.gmx::ArrayRef" = type { %"struct.gmx::ArrayRefIter", %"struct.gmx::ArrayRefIter" }
%"struct.gmx::ArrayRefIter" = type { ptr }
%"class.gmx::AnalysisNeighborhoodPair" = type { i32, i32, float, [3 x float] }

; Function Attrs: inlinehint mustprogress nounwind uwtable
define internal void @_ZL9copy_rvecPKfPf(ptr noundef %0, ptr noundef %1) #4 {
  %3 = alloca ptr, align 8
  %4 = alloca ptr, align 8
  store ptr %0, ptr %3, align 8, !tbaa !55
  store ptr %1, ptr %4, align 8, !tbaa !55
  %5 = load ptr, ptr %3, align 8, !tbaa !55
  %6 = getelementptr inbounds float, ptr %5, i64 0
  %7 = load float, ptr %6, align 4, !tbaa !9
  %8 = load ptr, ptr %4, align 8, !tbaa !55
  %9 = getelementptr inbounds float, ptr %8, i64 0
  store float %7, ptr %9, align 4, !tbaa !9
  %10 = load ptr, ptr %3, align 8, !tbaa !55
  %11 = getelementptr inbounds float, ptr %10, i64 1
  %12 = load float, ptr %11, align 4, !tbaa !9
  %13 = load ptr, ptr %4, align 8, !tbaa !55
  %14 = getelementptr inbounds float, ptr %13, i64 1
  store float %12, ptr %14, align 4, !tbaa !9
  %15 = load ptr, ptr %3, align 8, !tbaa !55
  %16 = getelementptr inbounds float, ptr %15, i64 2
  %17 = load float, ptr %16, align 4, !tbaa !9
  %18 = load ptr, ptr %4, align 8, !tbaa !55
  %19 = getelementptr inbounds float, ptr %18, i64 2
  store float %17, ptr %19, align 4, !tbaa !9
  ret void
}

; Function Attrs: mustprogress nounwind uwtable
define linkonce_odr void @_ZN3gmx24AnalysisNeighborhoodPairC2EiifPKf(ptr noundef nonnull align 4 dereferenceable(24) %0, i32 noundef %1, i32 noundef %2, float noundef %3, ptr noundef %4) unnamed_addr #1 comdat align 2 {
  %6 = alloca ptr, align 8
  %7 = alloca i32, align 4
  %8 = alloca i32, align 4
  %9 = alloca float, align 4
  %10 = alloca ptr, align 8
  store ptr %0, ptr %6, align 8, !tbaa !361
  store i32 %1, ptr %7, align 4, !tbaa !57
  store i32 %2, ptr %8, align 4, !tbaa !57
  store float %3, ptr %9, align 4, !tbaa !9
  store ptr %4, ptr %10, align 8, !tbaa !55
  %11 = load ptr, ptr %6, align 8
  %12 = getelementptr inbounds nuw %"class.gmx::AnalysisNeighborhoodPair", ptr %11, i32 0, i32 0
  %13 = load i32, ptr %7, align 4, !tbaa !57
  store i32 %13, ptr %12, align 4, !tbaa !364
  %14 = getelementptr inbounds nuw %"class.gmx::AnalysisNeighborhoodPair", ptr %11, i32 0, i32 1
  %15 = load i32, ptr %8, align 4, !tbaa !57
  store i32 %15, ptr %14, align 4, !tbaa !366
  %16 = getelementptr inbounds nuw %"class.gmx::AnalysisNeighborhoodPair", ptr %11, i32 0, i32 2
  %17 = load float, ptr %9, align 4, !tbaa !9
  store float %17, ptr %16, align 4, !tbaa !367
  %18 = getelementptr inbounds nuw %"class.gmx::AnalysisNeighborhoodPair", ptr %11, i32 0, i32 3
  call void @llvm.memset.p0.i64(ptr align 4 %18, i8 0, i64 12, i1 false)
  %19 = load ptr, ptr %10, align 8, !tbaa !55
  %20 = getelementptr inbounds nuw %"class.gmx::AnalysisNeighborhoodPair", ptr %11, i32 0, i32 3
  %21 = getelementptr inbounds [3 x float], ptr %20, i64 0, i64 0
  call void @_ZL9copy_rvecPKfPf(ptr noundef %19, ptr noundef %21)
  ret void
}

; Function Attrs: mustprogress nounwind uwtable
define linkonce_odr void @_ZN3gmx24AnalysisNeighborhoodPairC2Ev(ptr noundef nonnull align 4 dereferenceable(24) %0) unnamed_addr #1 comdat align 2 {
  %2 = alloca ptr, align 8
  store ptr %0, ptr %2, align 8, !tbaa !361
  %3 = load ptr, ptr %2, align 8
  %4 = getelementptr inbounds nuw %"class.gmx::AnalysisNeighborhoodPair", ptr %3, i32 0, i32 0
  store i32 -1, ptr %4, align 4, !tbaa !364
  %5 = getelementptr inbounds nuw %"class.gmx::AnalysisNeighborhoodPair", ptr %3, i32 0, i32 1
  store i32 0, ptr %5, align 4, !tbaa !366
  %6 = getelementptr inbounds nuw %"class.gmx::AnalysisNeighborhoodPair", ptr %3, i32 0, i32 2
  store float 0.000000e+00, ptr %6, align 4, !tbaa !367
  %7 = getelementptr inbounds nuw %"class.gmx::AnalysisNeighborhoodPair", ptr %3, i32 0, i32 3
  call void @llvm.memset.p0.i64(ptr align 4 %7, i8 0, i64 12, i1 false)
  ret void
}

; Function Attrs: mustprogress uwtable
define void @_ZNK3gmx8internal34AnalysisNeighborhoodPairSearchImpl13initFoundPairEPNS_24AnalysisNeighborhoodPairE(ptr noundef nonnull align 8 dereferenceable(140) %0, ptr noundef %1) #0 align 2 {
  %3 = alloca ptr, align 8
  %4 = alloca ptr, align 8
  %5 = alloca %"class.gmx::AnalysisNeighborhoodPair", align 4
  %6 = alloca %"class.gmx::AnalysisNeighborhoodPair", align 4
  store ptr %0, ptr %3, align 8, !tbaa !162
  store ptr %1, ptr %4, align 8, !tbaa !361
  %7 = load ptr, ptr %3, align 8
  %8 = getelementptr inbounds nuw %"class.gmx::internal::AnalysisNeighborhoodPairSearchImpl", ptr %7, i32 0, i32 10
  %9 = load i32, ptr %8, align 8, !tbaa !179
  %10 = icmp slt i32 %9, 0
  br i1 %10, label %11, label %13

11:                                               ; preds = %2
  call void @llvm.lifetime.start.p0(i64 24, ptr %5) #20
  call void @_ZN3gmx24AnalysisNeighborhoodPairC2Ev(ptr noundef nonnull align 4 dereferenceable(24) %5)
  %12 = load ptr, ptr %4, align 8, !tbaa !361
  call void @llvm.memcpy.p0.p0.i64(ptr align 4 %12, ptr align 4 %5, i64 24, i1 false), !tbaa.struct !363
  call void @llvm.lifetime.end.p0(i64 24, ptr %5) #20
  br label %23

13:                                               ; preds = %2
  call void @llvm.lifetime.start.p0(i64 24, ptr %6) #20
  %14 = getelementptr inbounds nuw %"class.gmx::internal::AnalysisNeighborhoodPairSearchImpl", ptr %7, i32 0, i32 10
  %15 = load i32, ptr %14, align 8, !tbaa !179
  %16 = getelementptr inbounds nuw %"class.gmx::internal::AnalysisNeighborhoodPairSearchImpl", ptr %7, i32 0, i32 8
  %17 = load i32, ptr %16, align 8, !tbaa !177
  %18 = getelementptr inbounds nuw %"class.gmx::internal::AnalysisNeighborhoodPairSearchImpl", ptr %7, i32 0, i32 11
  %19 = load float, ptr %18, align 4, !tbaa !180
  %20 = getelementptr inbounds nuw %"class.gmx::internal::AnalysisNeighborhoodPairSearchImpl", ptr %7, i32 0, i32 12
  %21 = getelementptr inbounds [3 x float], ptr %20, i64 0, i64 0
  call void @_ZN3gmx24AnalysisNeighborhoodPairC2EiifPKf(ptr noundef nonnull align 4 dereferenceable(24) %6, i32 noundef %15, i32 noundef %17, float noundef %19, ptr noundef %21)
  %22 = load ptr, ptr %4, align 8, !tbaa !361
  call void @llvm.memcpy.p0.p0.i64(ptr align 4 %22, ptr align 4 %6, i64 24, i1 false), !tbaa.struct !363
  call void @llvm.lifetime.end.p0(i64 24, ptr %6) #20
  br label %23

23:                                               ; preds = %13, %11
  ret void
}