; Function Attrs: mustprogress nofree norecurse nosync nounwind willreturn memory(argmem: readwrite) uwtable
define void @_ZNK3gmx8internal34AnalysisNeighborhoodPairSearchImpl13initFoundPairEPNS_24AnalysisNeighborhoodPairE(ptr noundef nonnull readonly align 8 captures(none) dereferenceable(140) %0, ptr noundef writeonly captures(none) initializes((0, 24)) %1) local_unnamed_addr #28 align 2 {
  %3 = getelementptr inbounds nuw i8, ptr %0, i64 72
  %4 = load i32, ptr %3, align 8, !tbaa !80
  %5 = icmp slt i32 %4, 0
  br i1 %5, label %6, label %7

6:                                                ; preds = %2
  %.sroa.44.0..sroa_idx = getelementptr inbounds nuw i8, ptr %1, i64 4
  tail call void @llvm.memset.p0.i64(ptr noundef nonnull align 4 dereferenceable(20) %.sroa.44.0..sroa_idx, i8 0, i64 20, i1 false)
  br label %18

7:                                                ; preds = %2
  %8 = getelementptr inbounds nuw i8, ptr %0, i64 56
  %9 = load i32, ptr %8, align 8, !tbaa !78
  %10 = getelementptr inbounds nuw i8, ptr %0, i64 76
  %11 = load float, ptr %10, align 4, !tbaa !184
  %12 = getelementptr inbounds nuw i8, ptr %0, i64 80
  %13 = load float, ptr %12, align 8, !tbaa !77
  %14 = getelementptr inbounds nuw i8, ptr %0, i64 84
  %15 = load float, ptr %14, align 4, !tbaa !77
  %16 = getelementptr inbounds nuw i8, ptr %0, i64 88
  %17 = load float, ptr %16, align 8, !tbaa !77
  %.sroa.4.0..sroa_idx = getelementptr inbounds nuw i8, ptr %1, i64 4
  store i32 %9, ptr %.sroa.4.0..sroa_idx, align 4, !tbaa !39
  %.sroa.5.0..sroa_idx = getelementptr inbounds nuw i8, ptr %1, i64 8
  store float %11, ptr %.sroa.5.0..sroa_idx, align 4, !tbaa !77
  %.sroa.6.0..sroa_idx = getelementptr inbounds nuw i8, ptr %1, i64 12
  store float %13, ptr %.sroa.6.0..sroa_idx, align 4
  %.sroa.8.0..sroa_idx = getelementptr inbounds nuw i8, ptr %1, i64 16
  store float %15, ptr %.sroa.8.0..sroa_idx, align 4
  %.sroa.9.0..sroa_idx = getelementptr inbounds nuw i8, ptr %1, i64 20
  store float %17, ptr %.sroa.9.0..sroa_idx, align 4, !tbaa !48
  br label %18

18:                                               ; preds = %7, %6
  %.sink = phi i32 [ -1, %6 ], [ %4, %7 ]
  store i32 %.sink, ptr %1, align 4, !tbaa !39
  ret void
}